target datalayout = "e-m:e-p270:32:32-p271:32:32-p272:64:64-i64:64-i128:128-f80:128-n8:16:32:64-S128"
target triple = "x86_64-pc-linux-gnu"

%"class.cv::Mat" = type { i32, i32, i32, i32, ptr, ptr, ptr, ptr, ptr, ptr, %"struct.cv::MatSize", %"struct.cv::MatStep" }
%"struct.cv::MatSize" = type { ptr }
%"struct.cv::MatStep" = type { ptr, [2 x i64] }

; Function Attrs: inlinehint mustprogress nounwind uwtable
define linkonce_odr void @_ZSt4swapImENSt9enable_ifIXsr6__and_ISt6__not_ISt15__is_tuple_likeIT_EESt21is_move_constructibleIS3_ESt18is_move_assignableIS3_EEE5valueEvE4typeERS3_SC_(ptr noundef nonnull align 8 dereferenceable(8) %0, ptr noundef nonnull align 8 dereferenceable(8) %1) #1 comdat {
  %3 = alloca ptr, align 8
  %4 = alloca ptr, align 8
  %5 = alloca i64, align 8
  store ptr %0, ptr %3, align 8, !tbaa !35
  store ptr %1, ptr %4, align 8, !tbaa !35
  call void @llvm.lifetime.start.p0(i64 8, ptr %5) #14
  %6 = load ptr, ptr %3, align 8, !tbaa !35
  %7 = load i64, ptr %6, align 8, !tbaa !36
  store i64 %7, ptr %5, align 8, !tbaa !36
  %8 = load ptr, ptr %4, align 8, !tbaa !35
  %9 = load i64, ptr %8, align 8, !tbaa !36
  %10 = load ptr, ptr %3, align 8, !tbaa !35
  store i64 %9, ptr %10, align 8, !tbaa !36
  %11 = load i64, ptr %5, align 8, !tbaa !36
  %12 = load ptr, ptr %4, align 8, !tbaa !35
  store i64 %11, ptr %12, align 8, !tbaa !36
  call void @llvm.lifetime.end.p0(i64 8, ptr %5) #14
  ret void
}

; Function Attrs: inlinehint mustprogress nounwind uwtable
define linkonce_odr void @_ZSt4swapIPmENSt9enable_ifIXsr6__and_ISt6__not_ISt15__is_tuple_likeIT_EESt21is_move_constructibleIS4_ESt18is_move_assignableIS4_EEE5valueEvE4typeERS4_SD_(ptr noundef nonnull align 8 dereferenceable(8) %0, ptr noundef nonnull align 8 dereferenceable(8) %1) #1 comdat {
  %3 = alloca ptr, align 8
  %4 = alloca ptr, align 8
  %5 = alloca ptr, align 8
  store ptr %0, ptr %3, align 8, !tbaa !33
  store ptr %1, ptr %4, align 8, !tbaa !33
  call void @llvm.lifetime.start.p0(i64 8, ptr %5) #14
  %6 = load ptr, ptr %3, align 8, !tbaa !33
  %7 = load ptr, ptr %6, align 8, !tbaa !35
  store ptr %7, ptr %5, align 8, !tbaa !35
  %8 = load ptr, ptr %4, align 8, !tbaa !33
  %9 = load ptr, ptr %8, align 8, !tbaa !35
  %10 = load ptr, ptr %3, align 8, !tbaa !33
  store ptr %9, ptr %10, align 8, !tbaa !35
  %11 = load ptr, ptr %5, align 8, !tbaa !35
  %12 = load ptr, ptr %4, align 8, !tbaa !33
  store ptr %11, ptr %12, align 8, !tbaa !35
  call void @llvm.lifetime.end.p0(i64 8, ptr %5) #14
  ret void
}

; Function Attrs: inlinehint mustprogress nounwind uwtable
define linkonce_odr void @_ZSt4swapIPiENSt9enable_ifIXsr6__and_ISt6__not_ISt15__is_tuple_likeIT_EESt21is_move_constructibleIS4_ESt18is_move_assignableIS4_EEE5valueEvE4typeERS4_SD_(ptr noundef nonnull align 8 dereferenceable(8) %0, ptr noundef nonnull align 8 dereferenceable(8) %1) #1 comdat {
  %3 = alloca ptr, align 8
  %4 = alloca ptr, align 8
  %5 = alloca ptr, align 8
  store ptr %0, ptr %3, align 8, !tbaa !31
  store ptr %1, ptr %4, align 8, !tbaa !31
  call void @llvm.lifetime.start.p0(i64 8, ptr %5) #14
  %6 = load ptr, ptr %3, align 8, !tbaa !31
  %7 = load ptr, ptr %6, align 8, !tbaa !19
  store ptr %7, ptr %5, align 8, !tbaa !19
  %8 = load ptr, ptr %4, align 8, !tbaa !31
  %9 = load ptr, ptr %8, align 8, !tbaa !19
  %10 = load ptr, ptr %3, align 8, !tbaa !31
  store ptr %9, ptr %10, align 8, !tbaa !19
  %11 = load ptr, ptr %5, align 8, !tbaa !19
  %12 = load ptr, ptr %4, align 8, !tbaa !31
  store ptr %11, ptr %12, align 8, !tbaa !19
  call void @llvm.lifetime.end.p0(i64 8, ptr %5) #14
  ret void
}

; Function Attrs: inlinehint mustprogress nounwind uwtable
define linkonce_odr void @_ZSt4swapIPN2cv8UMatDataEENSt9enable_ifIXsr6__and_ISt6__not_ISt15__is_tuple_likeIT_EESt21is_move_constructibleIS6_ESt18is_move_assignableIS6_EEE5valueEvE4typeERS6_SF_(ptr noundef nonnull align 8 dereferenceable(8) %0, ptr noundef nonnull align 8 dereferenceable(8) %1) #1 comdat {
  %3 = alloca ptr, align 8
  %4 = alloca ptr, align 8
  %5 = alloca ptr, align 8
  store ptr %0, ptr %3, align 8, !tbaa !28
  store ptr %1, ptr %4, align 8, !tbaa !28
  call void @llvm.lifetime.start.p0(i64 8, ptr %5) #14
  %6 = load ptr, ptr %3, align 8, !tbaa !28
  %7 = load ptr, ptr %6, align 8, !tbaa !30
  store ptr %7, ptr %5, align 8, !tbaa !30
  %8 = load ptr, ptr %4, align 8, !tbaa !28
  %9 = load ptr, ptr %8, align 8, !tbaa !30
  %10 = load ptr, ptr %3, align 8, !tbaa !28
  store ptr %9, ptr %10, align 8, !tbaa !30
  %11 = load ptr, ptr %5, align 8, !tbaa !30
  %12 = load ptr, ptr %4, align 8, !tbaa !28
  store ptr %11, ptr %12, align 8, !tbaa !30
  call void @llvm.lifetime.end.p0(i64 8, ptr %5) #14
  ret void
}

; Function Attrs: inlinehint mustprogress nounwind uwtable
define linkonce_odr void @_ZSt4swapIPN2cv12MatAllocatorEENSt9enable_ifIXsr6__and_ISt6__not_ISt15__is_tuple_likeIT_EESt21is_move_constructibleIS6_ESt18is_move_assignableIS6_EEE5valueEvE4typeERS6_SF_(ptr noundef nonnull align 8 dereferenceable(8) %0, ptr noundef nonnull align 8 dereferenceable(8) %1) #1 comdat {
  %3 = alloca ptr, align 8
  %4 = alloca ptr, align 8
  %5 = alloca ptr, align 8
  store ptr %0, ptr %3, align 8, !tbaa !25
  store ptr %1, ptr %4, align 8, !tbaa !25
  call void @llvm.lifetime.start.p0(i64 8, ptr %5) #14
  %6 = load ptr, ptr %3, align 8, !tbaa !25
  %7 = load ptr, ptr %6, align 8, !tbaa !27
  store ptr %7, ptr %5, align 8, !tbaa !27
  %8 = load ptr, ptr %4, align 8, !tbaa !25
  %9 = load ptr, ptr %8, align 8, !tbaa !27
  %10 = load ptr, ptr %3, align 8, !tbaa !25
  store ptr %9, ptr %10, align 8, !tbaa !27
  %11 = load ptr, ptr %5, align 8, !tbaa !27
  %12 = load ptr, ptr %4, align 8, !tbaa !25
  store ptr %11, ptr %12, align 8, !tbaa !27
  call void @llvm.lifetime.end.p0(i64 8, ptr %5) #14
  ret void
}

; Function Attrs: inlinehint mustprogress nounwind uwtable
define linkonce_odr void @_ZSt4swapIPKhENSt9enable_ifIXsr6__and_ISt6__not_ISt15__is_tuple_likeIT_EESt21is_move_constructibleIS5_ESt18is_move_assignableIS5_EEE5valueEvE4typeERS5_SE_(ptr noundef nonnull align 8 dereferenceable(8) %0, ptr noundef nonnull align 8 dereferenceable(8) %1) #1 comdat {
  %3 = alloca ptr, align 8
  %4 = alloca ptr, align 8
  %5 = alloca ptr, align 8
  store ptr %0, ptr %3, align 8, !tbaa !21
  store ptr %1, ptr %4, align 8, !tbaa !21
  call void @llvm.lifetime.start.p0(i64 8, ptr %5) #14
  %6 = load ptr, ptr %3, align 8, !tbaa !21
  %7 = load ptr, ptr %6, align 8, !tbaa !24
  store ptr %7, ptr %5, align 8, !tbaa !24
  %8 = load ptr, ptr %4, align 8, !tbaa !21
  %9 = load ptr, ptr %8, align 8, !tbaa !24
  %10 = load ptr, ptr %3, align 8, !tbaa !21
  store ptr %9, ptr %10, align 8, !tbaa !24
  %11 = load ptr, ptr %5, align 8, !tbaa !24
  %12 = load ptr, ptr %4, align 8, !tbaa !21
  store ptr %11, ptr %12, align 8, !tbaa !24
  call void @llvm.lifetime.end.p0(i64 8, ptr %5) #14
  ret void
}

; Function Attrs: inlinehint mustprogress nounwind uwtable
define linkonce_odr void @_ZSt4swapIPhENSt9enable_ifIXsr6__and_ISt6__not_ISt15__is_tuple_likeIT_EESt21is_move_constructibleIS4_ESt18is_move_assignableIS4_EEE5valueEvE4typeERS4_SD_(ptr noundef nonnull align 8 dereferenceable(8) %0, ptr noundef nonnull align 8 dereferenceable(8) %1) #1 comdat {
  %3 = alloca ptr, align 8
  %4 = alloca ptr, align 8
  %5 = alloca ptr, align 8
  store ptr %0, ptr %3, align 8, !tbaa !21
  store ptr %1, ptr %4, align 8, !tbaa !21
  call void @llvm.lifetime.start.p0(i64 8, ptr %5) #14
  %6 = load ptr, ptr %3, align 8, !tbaa !21
  %7 = load ptr, ptr %6, align 8, !tbaa !24
  store ptr %7, ptr %5, align 8, !tbaa !24
  %8 = load ptr, ptr %4, align 8, !tbaa !21
  %9 = load ptr, ptr %8, align 8, !tbaa !24
  %10 = load ptr, ptr %3, align 8, !tbaa !21
  store ptr %9, ptr %10, align 8, !tbaa !24
  %11 = load ptr, ptr %5, align 8, !tbaa !24
  %12 = load ptr, ptr %4, align 8, !tbaa !21
  store ptr %11, ptr %12, align 8, !tbaa !24
  call void @llvm.lifetime.end.p0(i64 8, ptr %5) #14
  ret void
}

; Function Attrs: inlinehint mustprogress nounwind uwtable
define linkonce_odr void @_ZSt4swapIiENSt9enable_ifIXsr6__and_ISt6__not_ISt15__is_tuple_likeIT_EESt21is_move_constructibleIS3_ESt18is_move_assignableIS3_EEE5valueEvE4typeERS3_SC_(ptr noundef nonnull align 4 dereferenceable(4) %0, ptr noundef nonnull align 4 dereferenceable(4) %1) #1 comdat {
  %3 = alloca ptr, align 8
  %4 = alloca ptr, align 8
  %5 = alloca i32, align 4
  store ptr %0, ptr %3, align 8, !tbaa !19
  store ptr %1, ptr %4, align 8, !tbaa !19
  call void @llvm.lifetime.start.p0(i64 4, ptr %5) #14
  %6 = load ptr, ptr %3, align 8, !tbaa !19
  %7 = load i32, ptr %6, align 4, !tbaa !20
  store i32 %7, ptr %5, align 4, !tbaa !20
  %8 = load ptr, ptr %4, align 8, !tbaa !19
  %9 = load i32, ptr %8, align 4, !tbaa !20
  %10 = load ptr, ptr %3, align 8, !tbaa !19
  store i32 %9, ptr %10, align 4, !tbaa !20
  %11 = load i32, ptr %5, align 4, !tbaa !20
  %12 = load ptr, ptr %4, align 8, !tbaa !19
  store i32 %11, ptr %12, align 4, !tbaa !20
  call void @llvm.lifetime.end.p0(i64 4, ptr %5) #14
  ret void
}

; Function Attrs: mustprogress nounwind uwtable
define void @_ZN2cv4swapERNS_3MatES1_(ptr noundef nonnull align 8 dereferenceable(96) %0, ptr noundef nonnull align 8 dereferenceable(96) %1) #0 {
  %3 = alloca ptr, align 8
  %4 = alloca ptr, align 8
  store ptr %0, ptr %3, align 8, !tbaa !3
  store ptr %1, ptr %4, align 8, !tbaa !3
  %5 = load ptr, ptr %3, align 8, !tbaa !3
  %6 = getelementptr inbounds nuw %"class.cv::Mat", ptr %5, i32 0, i32 0
  %7 = load ptr, ptr %4, align 8, !tbaa !3
  %8 = getelementptr inbounds nuw %"class.cv::Mat", ptr %7, i32 0, i32 0
  call void @_ZSt4swapIiENSt9enable_ifIXsr6__and_ISt6__not_ISt15__is_tuple_likeIT_EESt21is_move_constructibleIS3_ESt18is_move_assignableIS3_EEE5valueEvE4typeERS3_SC_(ptr noundef nonnull align 4 dereferenceable(4) %6, ptr noundef nonnull align 4 dereferenceable(4) %8) #14
  %9 = load ptr, ptr %3, align 8, !tbaa !3
  %10 = getelementptr inbounds nuw %"class.cv::Mat", ptr %9, i32 0, i32 1
  %11 = load ptr, ptr %4, align 8, !tbaa !3
  %12 = getelementptr inbounds nuw %"class.cv::Mat", ptr %11, i32 0, i32 1
  call void @_ZSt4swapIiENSt9enable_ifIXsr6__and_ISt6__not_ISt15__is_tuple_likeIT_EESt21is_move_constructibleIS3_ESt18is_move_assignableIS3_EEE5valueEvE4typeERS3_SC_(ptr noundef nonnull align 4 dereferenceable(4) %10, ptr noundef nonnull align 4 dereferenceable(4) %12) #14
  %13 = load ptr, ptr %3, align 8, !tbaa !3
  %14 = getelementptr inbounds nuw %"class.cv::Mat", ptr %13, i32 0, i32 2
  %15 = load ptr, ptr %4, align 8, !tbaa !3
  %16 = getelementptr inbounds nuw %"class.cv::Mat", ptr %15, i32 0, i32 2
  call void @_ZSt4swapIiENSt9enable_ifIXsr6__and_ISt6__not_ISt15__is_tuple_likeIT_EESt21is_move_constructibleIS3_ESt18is_move_assignableIS3_EEE5valueEvE4typeERS3_SC_(ptr noundef nonnull align 4 dereferenceable(4) %14, ptr noundef nonnull align 4 dereferenceable(4) %16) #14
  %17 = load ptr, ptr %3, align 8, !tbaa !3
  %18 = getelementptr inbounds nuw %"class.cv::Mat", ptr %17, i32 0, i32 3
  %19 = load ptr, ptr %4, align 8, !tbaa !3
  %20 = getelementptr inbounds nuw %"class.cv::Mat", ptr %19, i32 0, i32 3
  call void @_ZSt4swapIiENSt9enable_ifIXsr6__and_ISt6__not_ISt15__is_tuple_likeIT_EESt21is_move_constructibleIS3_ESt18is_move_assignableIS3_EEE5valueEvE4typeERS3_SC_(ptr noundef nonnull align 4 dereferenceable(4) %18, ptr noundef nonnull align 4 dereferenceable(4) %20) #14
  %21 = load ptr, ptr %3, align 8, !tbaa !3
  %22 = getelementptr inbounds nuw %"class.cv::Mat", ptr %21, i32 0, i32 4
  %23 = load ptr, ptr %4, align 8, !tbaa !3
  %24 = getelementptr inbounds nuw %"class.cv::Mat", ptr %23, i32 0, i32 4
  call void @_ZSt4swapIPhENSt9enable_ifIXsr6__and_ISt6__not_ISt15__is_tuple_likeIT_EESt21is_move_constructibleIS4_ESt18is_move_assignableIS4_EEE5valueEvE4typeERS4_SD_(ptr noundef nonnull align 8 dereferenceable(8) %22, ptr noundef nonnull align 8 dereferenceable(8) %24) #14
  %25 = load ptr, ptr %3, align 8, !tbaa !3
  %26 = getelementptr inbounds nuw %"class.cv::Mat", ptr %25, i32 0, i32 5
  %27 = load ptr, ptr %4, align 8, !tbaa !3
  %28 = getelementptr inbounds nuw %"class.cv::Mat", ptr %27, i32 0, i32 5
  call void @_ZSt4swapIPKhENSt9enable_ifIXsr6__and_ISt6__not_ISt15__is_tuple_likeIT_EESt21is_move_constructibleIS5_ESt18is_move_assignableIS5_EEE5valueEvE4typeERS5_SE_(ptr noundef nonnull align 8 dereferenceable(8) %26, ptr noundef nonnull align 8 dereferenceable(8) %28) #14
  %29 = load ptr, ptr %3, align 8, !tbaa !3
  %30 = getelementptr inbounds nuw %"class.cv::Mat", ptr %29, i32 0, i32 6
  %31 = load ptr, ptr %4, align 8, !tbaa !3
  %32 = getelementptr inbounds nuw %"class.cv::Mat", ptr %31, i32 0, i32 6
  call void @_ZSt4swapIPKhENSt9enable_ifIXsr6__and_ISt6__not_ISt15__is_tuple_likeIT_EESt21is_move_constructibleIS5_ESt18is_move_assignableIS5_EEE5valueEvE4typeERS5_SE_(ptr noundef nonnull align 8 dereferenceable(8) %30, ptr noundef nonnull align 8 dereferenceable(8) %32) #14
  %33 = load ptr, ptr %3, align 8, !tbaa !3
  %34 = getelementptr inbounds nuw %"class.cv::Mat", ptr %33, i32 0, i32 7
  %35 = load ptr, ptr %4, align 8, !tbaa !3
  %36 = getelementptr inbounds nuw %"class.cv::Mat", ptr %35, i32 0, i32 7
  call void @_ZSt4swapIPKhENSt9enable_ifIXsr6__and_ISt6__not_ISt15__is_tuple_likeIT_EESt21is_move_constructibleIS5_ESt18is_move_assignableIS5_EEE5valueEvE4typeERS5_SE_(ptr noundef nonnull align 8 dereferenceable(8) %34, ptr noundef nonnull align 8 dereferenceable(8) %36) #14
  %37 = load ptr, ptr %3, align 8, !tbaa !3
  %38 = getelementptr inbounds nuw %"class.cv::Mat", ptr %37, i32 0, i32 8
  %39 = load ptr, ptr %4, align 8, !tbaa !3
  %40 = getelementptr inbounds nuw %"class.cv::Mat", ptr %39, i32 0, i32 8
  call void @_ZSt4swapIPN2cv12MatAllocatorEENSt9enable_ifIXsr6__and_ISt6__not_ISt15__is_tuple_likeIT_EESt21is_move_constructibleIS6_ESt18is_move_assignableIS6_EEE5valueEvE4typeERS6_SF_(ptr noundef nonnull align 8 dereferenceable(8) %38, ptr noundef nonnull align 8 dereferenceable(8) %40) #14
  %41 = load ptr, ptr %3, align 8, !tbaa !3
  %42 = getelementptr inbounds nuw %"class.cv::Mat", ptr %41, i32 0, i32 9
  %43 = load ptr, ptr %4, align 8, !tbaa !3
  %44 = getelementptr inbounds nuw %"class.cv::Mat", ptr %43, i32 0, i32 9
  call void @_ZSt4swapIPN2cv8UMatDataEENSt9enable_ifIXsr6__and_ISt6__not_ISt15__is_tuple_likeIT_EESt21is_move_constructibleIS6_ESt18is_move_assignableIS6_EEE5valueEvE4typeERS6_SF_(ptr noundef nonnull align 8 dereferenceable(8) %42, ptr noundef nonnull align 8 dereferenceable(8) %44) #14
  %45 = load ptr, ptr %3, align 8, !tbaa !3
  %46 = getelementptr inbounds nuw %"class.cv::Mat", ptr %45, i32 0, i32 10
  %47 = getelementptr inbounds nuw %"struct.cv::MatSize", ptr %46, i32 0, i32 0
  %48 = load ptr, ptr %4, align 8, !tbaa !3
  %49 = getelementptr inbounds nuw %"class.cv::Mat", ptr %48, i32 0, i32 10
  %50 = getelementptr inbounds nuw %"struct.cv::MatSize", ptr %49, i32 0, i32 0
  call void @_ZSt4swapIPiENSt9enable_ifIXsr6__and_ISt6__not_ISt15__is_tuple_likeIT_EESt21is_move_constructibleIS4_ESt18is_move_assignableIS4_EEE5valueEvE4typeERS4_SD_(ptr noundef nonnull align 8 dereferenceable(8) %47, ptr noundef nonnull align 8 dereferenceable(8) %50) #14
  %51 = load ptr, ptr %3, align 8, !tbaa !3
  %52 = getelementptr inbounds nuw %"class.cv::Mat", ptr %51, i32 0, i32 11
  %53 = getelementptr inbounds nuw %"struct.cv::MatStep", ptr %52, i32 0, i32 0
  %54 = load ptr, ptr %4, align 8, !tbaa !3
  %55 = getelementptr inbounds nuw %"class.cv::Mat", ptr %54, i32 0, i32 11
  %56 = getelementptr inbounds nuw %"struct.cv::MatStep", ptr %55, i32 0, i32 0
  call void @_ZSt4swapIPmENSt9enable_ifIXsr6__and_ISt6__not_ISt15__is_tuple_likeIT_EESt21is_move_constructibleIS4_ESt18is_move_assignableIS4_EEE5valueEvE4typeERS4_SD_(ptr noundef nonnull align 8 dereferenceable(8) %53, ptr noundef nonnull align 8 dereferenceable(8) %56) #14
  %57 = load ptr, ptr %3, align 8, !tbaa !3
  %58 = getelementptr inbounds nuw %"class.cv::Mat", ptr %57, i32 0, i32 11
  %59 = getelementptr inbounds nuw %"struct.cv::MatStep", ptr %58, i32 0, i32 1
  %60 = getelementptr inbounds [2 x i64], ptr %59, i64 0, i64 0
  %61 = load ptr, ptr %4, align 8, !tbaa !3
  %62 = getelementptr inbounds nuw %"class.cv::Mat", ptr %61, i32 0, i32 11
  %63 = getelementptr inbounds nuw %"struct.cv::MatStep", ptr %62, i32 0, i32 1
  %64 = getelementptr inbounds [2 x i64], ptr %63, i64 0, i64 0
  call void @_ZSt4swapImENSt9enable_ifIXsr6__and_ISt6__not_ISt15__is_tuple_likeIT_EESt21is_move_constructibleIS3_ESt18is_move_assignableIS3_EEE5valueEvE4typeERS3_SC_(ptr noundef nonnull align 8 dereferenceable(8) %60, ptr noundef nonnull align 8 dereferenceable(8) %64) #14
  %65 = load ptr, ptr %3, align 8, !tbaa !3
  %66 = getelementptr inbounds nuw %"class.cv::Mat", ptr %65, i32 0, i32 11
  %67 = getelementptr inbounds nuw %"struct.cv::MatStep", ptr %66, i32 0, i32 1
  %68 = getelementptr inbounds [2 x i64], ptr %67, i64 0, i64 1
  %69 = load ptr, ptr %4, align 8, !tbaa !3
  %70 = getelementptr inbounds nuw %"class.cv::Mat", ptr %69, i32 0, i32 11
  %71 = getelementptr inbounds nuw %"struct.cv::MatStep", ptr %70, i32 0, i32 1
  %72 = getelementptr inbounds [2 x i64], ptr %71, i64 0, i64 1
  call void @_ZSt4swapImENSt9enable_ifIXsr6__and_ISt6__not_ISt15__is_tuple_likeIT_EESt21is_move_constructibleIS3_ESt18is_move_assignableIS3_EEE5valueEvE4typeERS3_SC_(ptr noundef nonnull align 8 dereferenceable(8) %68, ptr noundef nonnull align 8 dereferenceable(8) %72) #14
  %73 = load ptr, ptr %3, align 8, !tbaa !3
  %74 = getelementptr inbounds nuw %"class.cv::Mat", ptr %73, i32 0, i32 11
  %75 = getelementptr inbounds nuw %"struct.cv::MatStep", ptr %74, i32 0, i32 0
  %76 = load ptr, ptr %75, align 8, !tbaa !8
  %77 = load ptr, ptr %4, align 8, !tbaa !3
  %78 = getelementptr inbounds nuw %"class.cv::Mat", ptr %77, i32 0, i32 11
  %79 = getelementptr inbounds nuw %"struct.cv::MatStep", ptr %78, i32 0, i32 1
  %80 = getelementptr inbounds [2 x i64], ptr %79, i64 0, i64 0
  %81 = icmp eq ptr %76, %80
  br i1 %81, label %82, label %95

82:                                               ; preds = %2
  %83 = load ptr, ptr %3, align 8, !tbaa !3
  %84 = getelementptr inbounds nuw %"class.cv::Mat", ptr %83, i32 0, i32 11
  %85 = getelementptr inbounds nuw %"struct.cv::MatStep", ptr %84, i32 0, i32 1
  %86 = getelementptr inbounds [2 x i64], ptr %85, i64 0, i64 0
  %87 = load ptr, ptr %3, align 8, !tbaa !3
  %88 = getelementptr inbounds nuw %"class.cv::Mat", ptr %87, i32 0, i32 11
  %89 = getelementptr inbounds nuw %"struct.cv::MatStep", ptr %88, i32 0, i32 0
  store ptr %86, ptr %89, align 8, !tbaa !8
  %90 = load ptr, ptr %3, align 8, !tbaa !3
  %91 = getelementptr inbounds nuw %"class.cv::Mat", ptr %90, i32 0, i32 2
  %92 = load ptr, ptr %3, align 8, !tbaa !3
  %93 = getelementptr inbounds nuw %"class.cv::Mat", ptr %92, i32 0, i32 10
  %94 = getelementptr inbounds nuw %"struct.cv::MatSize", ptr %93, i32 0, i32 0
  store ptr %91, ptr %94, align 8, !tbaa !18
  br label %95

95:                                               ; preds = %82, %2
  %96 = load ptr, ptr %4, align 8, !tbaa !3
  %97 = getelementptr inbounds nuw %"class.cv::Mat", ptr %96, i32 0, i32 11
  %98 = getelementptr inbounds nuw %"struct.cv::MatStep", ptr %97, i32 0, i32 0
  %99 = load ptr, ptr %98, align 8, !tbaa !8
  %100 = load ptr, ptr %3, align 8, !tbaa !3
  %101 = getelementptr inbounds nuw %"class.cv::Mat", ptr %100, i32 0, i32 11
  %102 = getelementptr inbounds nuw %"struct.cv::MatStep", ptr %101, i32 0, i32 1
  %103 = getelementptr inbounds [2 x i64], ptr %102, i64 0, i64 0
  %104 = icmp eq ptr %99, %103
  br i1 %104, label %105, label %118

105:                                              ; preds = %95
  %106 = load ptr, ptr %4, align 8, !tbaa !3
  %107 = getelementptr inbounds nuw %"class.cv::Mat", ptr %106, i32 0, i32 11
  %108 = getelementptr inbounds nuw %"struct.cv::MatStep", ptr %107, i32 0, i32 1
  %109 = getelementptr inbounds [2 x i64], ptr %108, i64 0, i64 0
  %110 = load ptr, ptr %4, align 8, !tbaa !3
  %111 = getelementptr inbounds nuw %"class.cv::Mat", ptr %110, i32 0, i32 11
  %112 = getelementptr inbounds nuw %"struct.cv::MatStep", ptr %111, i32 0, i32 0
  store ptr %109, ptr %112, align 8, !tbaa !8
  %113 = load ptr, ptr %4, align 8, !tbaa !3
  %114 = getelementptr inbounds nuw %"class.cv::Mat", ptr %113, i32 0, i32 2
  %115 = load ptr, ptr %4, align 8, !tbaa !3
  %116 = getelementptr inbounds nuw %"class.cv::Mat", ptr %115, i32 0, i32 10
  %117 = getelementptr inbounds nuw %"struct.cv::MatSize", ptr %116, i32 0, i32 0
  store ptr %114, ptr %117, align 8, !tbaa !18
  br label %118

118:                                              ; preds = %105, %95
  ret void
}