; Function Attrs: mustprogress nofree norecurse nosync nounwind willreturn memory(argmem: readwrite) uwtable
define void @_ZN2cv4swapERNS_3MatES1_(ptr noundef nonnull align 8 dereferenceable(96) %0, ptr noundef nonnull align 8 dereferenceable(96) %1) local_unnamed_addr #0 {
  %3 = load i32, ptr %0, align 8, !tbaa !3
  %4 = load i32, ptr %1, align 8, !tbaa !3
  store i32 %4, ptr %0, align 8, !tbaa !3
  store i32 %3, ptr %1, align 8, !tbaa !3
  %5 = getelementptr inbounds nuw i8, ptr %0, i64 4
  %6 = getelementptr inbounds nuw i8, ptr %1, i64 4
  %7 = load i32, ptr %5, align 4, !tbaa !3
  %8 = load i32, ptr %6, align 4, !tbaa !3
  store i32 %8, ptr %5, align 4, !tbaa !3
  store i32 %7, ptr %6, align 4, !tbaa !3
  %9 = getelementptr inbounds nuw i8, ptr %0, i64 8
  %10 = getelementptr inbounds nuw i8, ptr %1, i64 8
  %11 = load i32, ptr %9, align 8, !tbaa !3
  %12 = load i32, ptr %10, align 8, !tbaa !3
  store i32 %12, ptr %9, align 8, !tbaa !3
  store i32 %11, ptr %10, align 8, !tbaa !3
  %13 = getelementptr inbounds nuw i8, ptr %0, i64 12
  %14 = getelementptr inbounds nuw i8, ptr %1, i64 12
  %15 = load i32, ptr %13, align 4, !tbaa !3
  %16 = load i32, ptr %14, align 4, !tbaa !3
  store i32 %16, ptr %13, align 4, !tbaa !3
  store i32 %15, ptr %14, align 4, !tbaa !3
  %17 = getelementptr inbounds nuw i8, ptr %0, i64 16
  %18 = getelementptr inbounds nuw i8, ptr %1, i64 16
  %19 = load ptr, ptr %17, align 8, !tbaa !7
  %20 = load ptr, ptr %18, align 8, !tbaa !7
  store ptr %20, ptr %17, align 8, !tbaa !7
  store ptr %19, ptr %18, align 8, !tbaa !7
  %21 = getelementptr inbounds nuw i8, ptr %0, i64 24
  %22 = getelementptr inbounds nuw i8, ptr %1, i64 24
  %23 = load ptr, ptr %21, align 8, !tbaa !7
  %24 = load ptr, ptr %22, align 8, !tbaa !7
  store ptr %24, ptr %21, align 8, !tbaa !7
  store ptr %23, ptr %22, align 8, !tbaa !7
  %25 = getelementptr inbounds nuw i8, ptr %0, i64 32
  %26 = getelementptr inbounds nuw i8, ptr %1, i64 32
  %27 = load ptr, ptr %25, align 8, !tbaa !7
  %28 = load ptr, ptr %26, align 8, !tbaa !7
  store ptr %28, ptr %25, align 8, !tbaa !7
  store ptr %27, ptr %26, align 8, !tbaa !7
  %29 = getelementptr inbounds nuw i8, ptr %0, i64 40
  %30 = getelementptr inbounds nuw i8, ptr %1, i64 40
  %31 = load ptr, ptr %29, align 8, !tbaa !7
  %32 = load ptr, ptr %30, align 8, !tbaa !7
  store ptr %32, ptr %29, align 8, !tbaa !7
  store ptr %31, ptr %30, align 8, !tbaa !7
  %33 = getelementptr inbounds nuw i8, ptr %0, i64 48
  %34 = getelementptr inbounds nuw i8, ptr %1, i64 48
  %35 = load ptr, ptr %33, align 8, !tbaa !10
  %36 = load ptr, ptr %34, align 8, !tbaa !10
  store ptr %36, ptr %33, align 8, !tbaa !10
  store ptr %35, ptr %34, align 8, !tbaa !10
  %37 = getelementptr inbounds nuw i8, ptr %0, i64 56
  %38 = getelementptr inbounds nuw i8, ptr %1, i64 56
  %39 = load ptr, ptr %37, align 8, !tbaa !12
  %40 = load ptr, ptr %38, align 8, !tbaa !12
  store ptr %40, ptr %37, align 8, !tbaa !12
  store ptr %39, ptr %38, align 8, !tbaa !12
  %41 = getelementptr inbounds nuw i8, ptr %0, i64 64
  %42 = getelementptr inbounds nuw i8, ptr %1, i64 64
  %43 = load ptr, ptr %41, align 8, !tbaa !14
  %44 = load ptr, ptr %42, align 8, !tbaa !14
  store ptr %44, ptr %41, align 8, !tbaa !14
  store ptr %43, ptr %42, align 8, !tbaa !14
  %45 = getelementptr inbounds nuw i8, ptr %0, i64 72
  %46 = getelementptr inbounds nuw i8, ptr %1, i64 72
  %47 = load ptr, ptr %45, align 8, !tbaa !16
  %48 = load ptr, ptr %46, align 8, !tbaa !16
  store ptr %48, ptr %45, align 8, !tbaa !16
  store ptr %47, ptr %46, align 8, !tbaa !16
  %49 = getelementptr inbounds nuw i8, ptr %0, i64 80
  %50 = getelementptr inbounds nuw i8, ptr %1, i64 80
  %51 = load i64, ptr %49, align 8, !tbaa !18
  %52 = load i64, ptr %50, align 8, !tbaa !18
  store i64 %52, ptr %49, align 8, !tbaa !18
  store i64 %51, ptr %50, align 8, !tbaa !18
  %53 = getelementptr inbounds nuw i8, ptr %0, i64 88
  %54 = getelementptr inbounds nuw i8, ptr %1, i64 88
  %55 = load i64, ptr %53, align 8, !tbaa !18
  %56 = load i64, ptr %54, align 8, !tbaa !18
  store i64 %56, ptr %53, align 8, !tbaa !18
  store i64 %55, ptr %54, align 8, !tbaa !18
  %57 = load ptr, ptr %45, align 8, !tbaa !20
  %58 = icmp eq ptr %57, %50
  br i1 %58, label %59, label %60

59:                                               ; preds = %2
  store ptr %49, ptr %45, align 8, !tbaa !20
  store ptr %9, ptr %41, align 8, !tbaa !24
  %.pre = load ptr, ptr %46, align 8, !tbaa !20
  br label %60

60:                                               ; preds = %59, %2
  %61 = phi ptr [ %.pre, %59 ], [ %47, %2 ]
  %62 = icmp eq ptr %61, %49
  br i1 %62, label %63, label %64

63:                                               ; preds = %60
  store ptr %50, ptr %46, align 8, !tbaa !20
  store ptr %10, ptr %42, align 8, !tbaa !24
  br label %64

64:                                               ; preds = %63, %60
  ret void
}